target datalayout = "e-m:e-p270:32:32-p271:32:32-p272:64:64-i64:64-i128:128-f80:128-n8:16:32:64-S128"
target triple = "x86_64-pc-linux-gnu"

@libctx = internal global ptr null, align 8
@.str.14 = private unnamed_addr constant [30 x i8] c"../openssl/test/quicapitest.c\00", align 1
@.str.70 = private unnamed_addr constant [2 x i8] c"0\00", align 1
@.str.153 = private unnamed_addr constant [62 x i8] c"ctx = SSL_CTX_new_ex(libctx, NULL, OSSL_QUIC_client_method())\00", align 1
@.str.345 = private unnamed_addr constant [45 x i8] c"SSL_CTX_get_domain_flags(ctx, &domain_flags)\00", align 1
@.str.346 = private unnamed_addr constant [13 x i8] c"domain_flags\00", align 1
@.str.347 = private unnamed_addr constant [78 x i8] c"domain_flags & (SSL_DOMAIN_FLAG_SINGLE_THREAD | SSL_DOMAIN_FLAG_MULTI_THREAD)\00", align 1
@.str.348 = private unnamed_addr constant [47 x i8] c"domain_flags & SSL_DOMAIN_FLAG_LEGACY_BLOCKING\00", align 1
@.str.349 = private unnamed_addr constant [61 x i8] c"SSL_CTX_set_domain_flags(ctx, SSL_DOMAIN_FLAG_SINGLE_THREAD)\00", align 1
@.str.350 = private unnamed_addr constant [30 x i8] c"SSL_DOMAIN_FLAG_SINGLE_THREAD\00", align 1
@.str.351 = private unnamed_addr constant [32 x i8] c"domain = SSL_new_domain(ctx, 0)\00", align 1
@.str.352 = private unnamed_addr constant [44 x i8] c"SSL_get_domain_flags(domain, &domain_flags)\00", align 1
@.str.353 = private unnamed_addr constant [26 x i8] c"other_conn = SSL_new(ctx)\00", align 1
@.str.354 = private unnamed_addr constant [48 x i8] c"SSL_get_domain_flags(other_conn, &domain_flags)\00", align 1
@.str.355 = private unnamed_addr constant [22 x i8] c"SSL_is_domain(domain)\00", align 1
@.str.356 = private unnamed_addr constant [26 x i8] c"SSL_is_domain(other_conn)\00", align 1
@.str.357 = private unnamed_addr constant [24 x i8] c"SSL_get0_domain(domain)\00", align 1
@.str.358 = private unnamed_addr constant [7 x i8] c"domain\00", align 1
@.str.359 = private unnamed_addr constant [28 x i8] c"SSL_get0_domain(other_conn)\00", align 1
@.str.360 = private unnamed_addr constant [44 x i8] c"listener = SSL_new_listener_from(domain, 0)\00", align 1
@.str.361 = private unnamed_addr constant [26 x i8] c"SSL_is_listener(listener)\00", align 1
@.str.362 = private unnamed_addr constant [24 x i8] c"SSL_is_domain(listener)\00", align 1
@.str.363 = private unnamed_addr constant [26 x i8] c"SSL_get0_domain(listener)\00", align 1
@.str.364 = private unnamed_addr constant [28 x i8] c"SSL_get0_listener(listener)\00", align 1
@.str.365 = private unnamed_addr constant [9 x i8] c"listener\00", align 1

; Function Attrs: nounwind uwtable
define internal i32 @test_domain_flags() #0 {
  %1 = alloca i32, align 4
  %2 = alloca ptr, align 8
  %3 = alloca ptr, align 8
  %4 = alloca ptr, align 8
  %5 = alloca ptr, align 8
  %6 = alloca i64, align 8
  call void @llvm.lifetime.start.p0(i64 4, ptr %1) #8
  store i32 0, ptr %1, align 4, !tbaa !13
  call void @llvm.lifetime.start.p0(i64 8, ptr %2) #8
  store ptr null, ptr %2, align 8, !tbaa !15
  call void @llvm.lifetime.start.p0(i64 8, ptr %3) #8
  store ptr null, ptr %3, align 8, !tbaa !17
  call void @llvm.lifetime.start.p0(i64 8, ptr %4) #8
  store ptr null, ptr %4, align 8, !tbaa !17
  call void @llvm.lifetime.start.p0(i64 8, ptr %5) #8
  store ptr null, ptr %5, align 8, !tbaa !17
  call void @llvm.lifetime.start.p0(i64 8, ptr %6) #8
  store i64 0, ptr %6, align 8, !tbaa !21
  %7 = load ptr, ptr @libctx, align 8, !tbaa !4
  %8 = call ptr @OSSL_QUIC_client_method()
  %9 = call ptr @SSL_CTX_new_ex(ptr noundef %7, ptr noundef null, ptr noundef %8)
  store ptr %9, ptr %2, align 8, !tbaa !15
  %10 = call i32 @test_ptr(ptr noundef @.str.14, i32 noundef 2398, ptr noundef @.str.153, ptr noundef %9)
  %11 = icmp ne i32 %10, 0
  br i1 %11, label %12, label %141

12:                                               ; preds = %0
  %13 = load ptr, ptr %2, align 8, !tbaa !15
  %14 = call i32 @SSL_CTX_get_domain_flags(ptr noundef %13, ptr noundef %6)
  %15 = icmp ne i32 %14, 0
  %16 = zext i1 %15 to i32
  %17 = call i32 @test_true(ptr noundef @.str.14, i32 noundef 2399, ptr noundef @.str.345, i32 noundef %16)
  %18 = icmp ne i32 %17, 0
  br i1 %18, label %19, label %141

19:                                               ; preds = %12
  %20 = load i64, ptr %6, align 8, !tbaa !21
  %21 = call i32 @test_uint64_t_ne(ptr noundef @.str.14, i32 noundef 2400, ptr noundef @.str.346, ptr noundef @.str.70, i64 noundef %20, i64 noundef 0)
  %22 = icmp ne i32 %21, 0
  br i1 %22, label %23, label %141

23:                                               ; preds = %19
  %24 = load i64, ptr %6, align 8, !tbaa !21
  %25 = and i64 %24, 3
  %26 = call i32 @test_uint64_t_ne(ptr noundef @.str.14, i32 noundef 2402, ptr noundef @.str.347, ptr noundef @.str.70, i64 noundef %25, i64 noundef 0)
  %27 = icmp ne i32 %26, 0
  br i1 %27, label %28, label %141

28:                                               ; preds = %23
  %29 = load i64, ptr %6, align 8, !tbaa !21
  %30 = and i64 %29, 16
  %31 = call i32 @test_uint64_t_ne(ptr noundef @.str.14, i32 noundef 2403, ptr noundef @.str.348, ptr noundef @.str.70, i64 noundef %30, i64 noundef 0)
  %32 = icmp ne i32 %31, 0
  br i1 %32, label %33, label %141

33:                                               ; preds = %28
  %34 = load ptr, ptr %2, align 8, !tbaa !15
  %35 = call i32 @SSL_CTX_set_domain_flags(ptr noundef %34, i64 noundef 1)
  %36 = icmp ne i32 %35, 0
  %37 = zext i1 %36 to i32
  %38 = call i32 @test_true(ptr noundef @.str.14, i32 noundef 2404, ptr noundef @.str.349, i32 noundef %37)
  %39 = icmp ne i32 %38, 0
  br i1 %39, label %40, label %141

40:                                               ; preds = %33
  %41 = load ptr, ptr %2, align 8, !tbaa !15
  %42 = call i32 @SSL_CTX_get_domain_flags(ptr noundef %41, ptr noundef %6)
  %43 = icmp ne i32 %42, 0
  %44 = zext i1 %43 to i32
  %45 = call i32 @test_true(ptr noundef @.str.14, i32 noundef 2405, ptr noundef @.str.345, i32 noundef %44)
  %46 = icmp ne i32 %45, 0
  br i1 %46, label %47, label %141

47:                                               ; preds = %40
  %48 = load i64, ptr %6, align 8, !tbaa !21
  %49 = call i32 @test_uint64_t_eq(ptr noundef @.str.14, i32 noundef 2406, ptr noundef @.str.346, ptr noundef @.str.350, i64 noundef %48, i64 noundef 1)
  %50 = icmp ne i32 %49, 0
  br i1 %50, label %51, label %141

51:                                               ; preds = %47
  %52 = load ptr, ptr %2, align 8, !tbaa !15
  %53 = call ptr @SSL_new_domain(ptr noundef %52, i64 noundef 0)
  store ptr %53, ptr %3, align 8, !tbaa !17
  %54 = call i32 @test_ptr(ptr noundef @.str.14, i32 noundef 2407, ptr noundef @.str.351, ptr noundef %53)
  %55 = icmp ne i32 %54, 0
  br i1 %55, label %56, label %141

56:                                               ; preds = %51
  %57 = load ptr, ptr %3, align 8, !tbaa !17
  %58 = call i32 @SSL_get_domain_flags(ptr noundef %57, ptr noundef %6)
  %59 = icmp ne i32 %58, 0
  %60 = zext i1 %59 to i32
  %61 = call i32 @test_true(ptr noundef @.str.14, i32 noundef 2408, ptr noundef @.str.352, i32 noundef %60)
  %62 = icmp ne i32 %61, 0
  br i1 %62, label %63, label %141

63:                                               ; preds = %56
  %64 = load i64, ptr %6, align 8, !tbaa !21
  %65 = call i32 @test_uint64_t_eq(ptr noundef @.str.14, i32 noundef 2409, ptr noundef @.str.346, ptr noundef @.str.350, i64 noundef %64, i64 noundef 1)
  %66 = icmp ne i32 %65, 0
  br i1 %66, label %67, label %141

67:                                               ; preds = %63
  %68 = load ptr, ptr %2, align 8, !tbaa !15
  %69 = call ptr @SSL_new(ptr noundef %68)
  store ptr %69, ptr %5, align 8, !tbaa !17
  %70 = icmp ne ptr %69, null
  %71 = zext i1 %70 to i32
  %72 = call i32 @test_true(ptr noundef @.str.14, i32 noundef 2410, ptr noundef @.str.353, i32 noundef %71)
  %73 = icmp ne i32 %72, 0
  br i1 %73, label %74, label %141

74:                                               ; preds = %67
  %75 = load ptr, ptr %5, align 8, !tbaa !17
  %76 = call i32 @SSL_get_domain_flags(ptr noundef %75, ptr noundef %6)
  %77 = icmp ne i32 %76, 0
  %78 = zext i1 %77 to i32
  %79 = call i32 @test_true(ptr noundef @.str.14, i32 noundef 2411, ptr noundef @.str.354, i32 noundef %78)
  %80 = icmp ne i32 %79, 0
  br i1 %80, label %81, label %141

81:                                               ; preds = %74
  %82 = load i64, ptr %6, align 8, !tbaa !21
  %83 = call i32 @test_uint64_t_eq(ptr noundef @.str.14, i32 noundef 2412, ptr noundef @.str.346, ptr noundef @.str.350, i64 noundef %82, i64 noundef 1)
  %84 = icmp ne i32 %83, 0
  br i1 %84, label %85, label %141

85:                                               ; preds = %81
  %86 = load ptr, ptr %3, align 8, !tbaa !17
  %87 = call i32 @SSL_is_domain(ptr noundef %86)
  %88 = icmp ne i32 %87, 0
  %89 = zext i1 %88 to i32
  %90 = call i32 @test_true(ptr noundef @.str.14, i32 noundef 2413, ptr noundef @.str.355, i32 noundef %89)
  %91 = icmp ne i32 %90, 0
  br i1 %91, label %92, label %141

92:                                               ; preds = %85
  %93 = load ptr, ptr %5, align 8, !tbaa !17
  %94 = call i32 @SSL_is_domain(ptr noundef %93)
  %95 = icmp ne i32 %94, 0
  %96 = zext i1 %95 to i32
  %97 = call i32 @test_false(ptr noundef @.str.14, i32 noundef 2414, ptr noundef @.str.356, i32 noundef %96)
  %98 = icmp ne i32 %97, 0
  br i1 %98, label %99, label %141

99:                                               ; preds = %92
  %100 = load ptr, ptr %3, align 8, !tbaa !17
  %101 = call ptr @SSL_get0_domain(ptr noundef %100)
  %102 = load ptr, ptr %3, align 8, !tbaa !17
  %103 = call i32 @test_ptr_eq(ptr noundef @.str.14, i32 noundef 2415, ptr noundef @.str.357, ptr noundef @.str.358, ptr noundef %101, ptr noundef %102)
  %104 = icmp ne i32 %103, 0
  br i1 %104, label %105, label %141

105:                                              ; preds = %99
  %106 = load ptr, ptr %5, align 8, !tbaa !17
  %107 = call ptr @SSL_get0_domain(ptr noundef %106)
  %108 = call i32 @test_ptr_null(ptr noundef @.str.14, i32 noundef 2416, ptr noundef @.str.359, ptr noundef %107)
  %109 = icmp ne i32 %108, 0
  br i1 %109, label %110, label %141

110:                                              ; preds = %105
  %111 = load ptr, ptr %3, align 8, !tbaa !17
  %112 = call ptr @SSL_new_listener_from(ptr noundef %111, i64 noundef 0)
  store ptr %112, ptr %4, align 8, !tbaa !17
  %113 = call i32 @test_ptr(ptr noundef @.str.14, i32 noundef 2417, ptr noundef @.str.360, ptr noundef %112)
  %114 = icmp ne i32 %113, 0
  br i1 %114, label %115, label %141

115:                                              ; preds = %110
  %116 = load ptr, ptr %4, align 8, !tbaa !17
  %117 = call i32 @SSL_is_listener(ptr noundef %116)
  %118 = icmp ne i32 %117, 0
  %119 = zext i1 %118 to i32
  %120 = call i32 @test_true(ptr noundef @.str.14, i32 noundef 2418, ptr noundef @.str.361, i32 noundef %119)
  %121 = icmp ne i32 %120, 0
  br i1 %121, label %122, label %141

122:                                              ; preds = %115
  %123 = load ptr, ptr %4, align 8, !tbaa !17
  %124 = call i32 @SSL_is_domain(ptr noundef %123)
  %125 = icmp ne i32 %124, 0
  %126 = zext i1 %125 to i32
  %127 = call i32 @test_false(ptr noundef @.str.14, i32 noundef 2419, ptr noundef @.str.362, i32 noundef %126)
  %128 = icmp ne i32 %127, 0
  br i1 %128, label %129, label %141

129:                                              ; preds = %122
  %130 = load ptr, ptr %4, align 8, !tbaa !17
  %131 = call ptr @SSL_get0_domain(ptr noundef %130)
  %132 = load ptr, ptr %3, align 8, !tbaa !17
  %133 = call i32 @test_ptr_eq(ptr noundef @.str.14, i32 noundef 2420, ptr noundef @.str.363, ptr noundef @.str.358, ptr noundef %131, ptr noundef %132)
  %134 = icmp ne i32 %133, 0
  br i1 %134, label %135, label %141

135:                                              ; preds = %129
  %136 = load ptr, ptr %4, align 8, !tbaa !17
  %137 = call ptr @SSL_get0_listener(ptr noundef %136)
  %138 = load ptr, ptr %4, align 8, !tbaa !17
  %139 = call i32 @test_ptr_eq(ptr noundef @.str.14, i32 noundef 2421, ptr noundef @.str.364, ptr noundef @.str.365, ptr noundef %137, ptr noundef %138)
  %140 = icmp ne i32 %139, 0
  br i1 %140, label %142, label %141

141:                                              ; preds = %135, %129, %122, %115, %110, %105, %99, %92, %85, %81, %74, %67, %63, %56, %51, %47, %40, %33, %28, %23, %19, %12, %0
  br label %143

142:                                              ; preds = %135
  store i32 1, ptr %1, align 4, !tbaa !13
  br label %143

143:                                              ; preds = %142, %141
  %144 = load ptr, ptr %3, align 8, !tbaa !17
  call void @SSL_free(ptr noundef %144)
  %145 = load ptr, ptr %4, align 8, !tbaa !17
  call void @SSL_free(ptr noundef %145)
  %146 = load ptr, ptr %5, align 8, !tbaa !17
  call void @SSL_free(ptr noundef %146)
  %147 = load ptr, ptr %2, align 8, !tbaa !15
  call void @SSL_CTX_free(ptr noundef %147)
  %148 = load i32, ptr %1, align 4, !tbaa !13
  call void @llvm.lifetime.end.p0(i64 8, ptr %6) #8
  call void @llvm.lifetime.end.p0(i64 8, ptr %5) #8
  call void @llvm.lifetime.end.p0(i64 8, ptr %4) #8
  call void @llvm.lifetime.end.p0(i64 8, ptr %3) #8
  call void @llvm.lifetime.end.p0(i64 8, ptr %2) #8
  call void @llvm.lifetime.end.p0(i64 4, ptr %1) #8
  ret i32 %148
}