; Function Attrs: nounwind uwtable
define internal range(i32 0, 2) i32 @test_domain_flags() #1 {
  %1 = alloca i64, align 8
  call void @llvm.lifetime.start.p0(i64 8, ptr nonnull %1) #10
  store i64 0, ptr %1, align 8, !tbaa !17
  %2 = load ptr, ptr @libctx, align 8, !tbaa !4
  %3 = tail call ptr @OSSL_QUIC_client_method() #10
  %4 = tail call ptr @SSL_CTX_new_ex(ptr noundef %2, ptr noundef null, ptr noundef %3) #10
  %5 = tail call i32 @test_ptr(ptr noundef nonnull @.str.14, i32 noundef 2398, ptr noundef nonnull @.str.153, ptr noundef %4) #10
  %.not = icmp eq i32 %5, 0
  br i1 %.not, label %94, label %6

6:                                                ; preds = %0
  %7 = call i32 @SSL_CTX_get_domain_flags(ptr noundef %4, ptr noundef nonnull %1) #10
  %8 = icmp ne i32 %7, 0
  %9 = zext i1 %8 to i32
  %10 = call i32 @test_true(ptr noundef nonnull @.str.14, i32 noundef 2399, ptr noundef nonnull @.str.345, i32 noundef %9) #10
  %.not26 = icmp eq i32 %10, 0
  br i1 %.not26, label %94, label %11

11:                                               ; preds = %6
  %12 = load i64, ptr %1, align 8, !tbaa !17
  %13 = call i32 @test_uint64_t_ne(ptr noundef nonnull @.str.14, i32 noundef 2400, ptr noundef nonnull @.str.346, ptr noundef nonnull @.str.70, i64 noundef %12, i64 noundef 0) #10
  %.not27 = icmp eq i32 %13, 0
  br i1 %.not27, label %94, label %14

14:                                               ; preds = %11
  %15 = load i64, ptr %1, align 8, !tbaa !17
  %16 = and i64 %15, 3
  %17 = call i32 @test_uint64_t_ne(ptr noundef nonnull @.str.14, i32 noundef 2402, ptr noundef nonnull @.str.347, ptr noundef nonnull @.str.70, i64 noundef %16, i64 noundef 0) #10
  %.not28 = icmp eq i32 %17, 0
  br i1 %.not28, label %94, label %18

18:                                               ; preds = %14
  %19 = load i64, ptr %1, align 8, !tbaa !17
  %20 = and i64 %19, 16
  %21 = call i32 @test_uint64_t_ne(ptr noundef nonnull @.str.14, i32 noundef 2403, ptr noundef nonnull @.str.348, ptr noundef nonnull @.str.70, i64 noundef %20, i64 noundef 0) #10
  %.not29 = icmp eq i32 %21, 0
  br i1 %.not29, label %94, label %22

22:                                               ; preds = %18
  %23 = call i32 @SSL_CTX_set_domain_flags(ptr noundef %4, i64 noundef 1) #10
  %24 = icmp ne i32 %23, 0
  %25 = zext i1 %24 to i32
  %26 = call i32 @test_true(ptr noundef nonnull @.str.14, i32 noundef 2404, ptr noundef nonnull @.str.349, i32 noundef %25) #10
  %.not30 = icmp eq i32 %26, 0
  br i1 %.not30, label %94, label %27

27:                                               ; preds = %22
  %28 = call i32 @SSL_CTX_get_domain_flags(ptr noundef %4, ptr noundef nonnull %1) #10
  %29 = icmp ne i32 %28, 0
  %30 = zext i1 %29 to i32
  %31 = call i32 @test_true(ptr noundef nonnull @.str.14, i32 noundef 2405, ptr noundef nonnull @.str.345, i32 noundef %30) #10
  %.not31 = icmp eq i32 %31, 0
  br i1 %.not31, label %94, label %32

32:                                               ; preds = %27
  %33 = load i64, ptr %1, align 8, !tbaa !17
  %34 = call i32 @test_uint64_t_eq(ptr noundef nonnull @.str.14, i32 noundef 2406, ptr noundef nonnull @.str.346, ptr noundef nonnull @.str.350, i64 noundef %33, i64 noundef 1) #10
  %.not32 = icmp eq i32 %34, 0
  br i1 %.not32, label %94, label %35

35:                                               ; preds = %32
  %36 = call ptr @SSL_new_domain(ptr noundef %4, i64 noundef 0) #10
  %37 = call i32 @test_ptr(ptr noundef nonnull @.str.14, i32 noundef 2407, ptr noundef nonnull @.str.351, ptr noundef %36) #10
  %.not33 = icmp eq i32 %37, 0
  br i1 %.not33, label %94, label %38

38:                                               ; preds = %35
  %39 = call i32 @SSL_get_domain_flags(ptr noundef %36, ptr noundef nonnull %1) #10
  %40 = icmp ne i32 %39, 0
  %41 = zext i1 %40 to i32
  %42 = call i32 @test_true(ptr noundef nonnull @.str.14, i32 noundef 2408, ptr noundef nonnull @.str.352, i32 noundef %41) #10
  %.not34 = icmp eq i32 %42, 0
  br i1 %.not34, label %94, label %43

43:                                               ; preds = %38
  %44 = load i64, ptr %1, align 8, !tbaa !17
  %45 = call i32 @test_uint64_t_eq(ptr noundef nonnull @.str.14, i32 noundef 2409, ptr noundef nonnull @.str.346, ptr noundef nonnull @.str.350, i64 noundef %44, i64 noundef 1) #10
  %.not35 = icmp eq i32 %45, 0
  br i1 %.not35, label %94, label %46

46:                                               ; preds = %43
  %47 = call ptr @SSL_new(ptr noundef %4) #10
  %48 = icmp ne ptr %47, null
  %49 = zext i1 %48 to i32
  %50 = call i32 @test_true(ptr noundef nonnull @.str.14, i32 noundef 2410, ptr noundef nonnull @.str.353, i32 noundef %49) #10
  %.not36 = icmp eq i32 %50, 0
  br i1 %.not36, label %94, label %51

51:                                               ; preds = %46
  %52 = call i32 @SSL_get_domain_flags(ptr noundef %47, ptr noundef nonnull %1) #10
  %53 = icmp ne i32 %52, 0
  %54 = zext i1 %53 to i32
  %55 = call i32 @test_true(ptr noundef nonnull @.str.14, i32 noundef 2411, ptr noundef nonnull @.str.354, i32 noundef %54) #10
  %.not37 = icmp eq i32 %55, 0
  br i1 %.not37, label %94, label %56

56:                                               ; preds = %51
  %57 = load i64, ptr %1, align 8, !tbaa !17
  %58 = call i32 @test_uint64_t_eq(ptr noundef nonnull @.str.14, i32 noundef 2412, ptr noundef nonnull @.str.346, ptr noundef nonnull @.str.350, i64 noundef %57, i64 noundef 1) #10
  %.not38 = icmp eq i32 %58, 0
  br i1 %.not38, label %94, label %59

59:                                               ; preds = %56
  %60 = call i32 @SSL_is_domain(ptr noundef %36) #10
  %61 = icmp ne i32 %60, 0
  %62 = zext i1 %61 to i32
  %63 = call i32 @test_true(ptr noundef nonnull @.str.14, i32 noundef 2413, ptr noundef nonnull @.str.355, i32 noundef %62) #10
  %.not39 = icmp eq i32 %63, 0
  br i1 %.not39, label %94, label %64

64:                                               ; preds = %59
  %65 = call i32 @SSL_is_domain(ptr noundef %47) #10
  %66 = icmp ne i32 %65, 0
  %67 = zext i1 %66 to i32
  %68 = call i32 @test_false(ptr noundef nonnull @.str.14, i32 noundef 2414, ptr noundef nonnull @.str.356, i32 noundef %67) #10
  %.not40 = icmp eq i32 %68, 0
  br i1 %.not40, label %94, label %69

69:                                               ; preds = %64
  %70 = call ptr @SSL_get0_domain(ptr noundef %36) #10
  %71 = call i32 @test_ptr_eq(ptr noundef nonnull @.str.14, i32 noundef 2415, ptr noundef nonnull @.str.357, ptr noundef nonnull @.str.358, ptr noundef %70, ptr noundef %36) #10
  %.not41 = icmp eq i32 %71, 0
  br i1 %.not41, label %94, label %72

72:                                               ; preds = %69
  %73 = call ptr @SSL_get0_domain(ptr noundef %47) #10
  %74 = call i32 @test_ptr_null(ptr noundef nonnull @.str.14, i32 noundef 2416, ptr noundef nonnull @.str.359, ptr noundef %73) #10
  %.not42 = icmp eq i32 %74, 0
  br i1 %.not42, label %94, label %75

75:                                               ; preds = %72
  %76 = call ptr @SSL_new_listener_from(ptr noundef %36, i64 noundef 0) #10
  %77 = call i32 @test_ptr(ptr noundef nonnull @.str.14, i32 noundef 2417, ptr noundef nonnull @.str.360, ptr noundef %76) #10
  %.not43 = icmp eq i32 %77, 0
  br i1 %.not43, label %94, label %78

78:                                               ; preds = %75
  %79 = call i32 @SSL_is_listener(ptr noundef %76) #10
  %80 = icmp ne i32 %79, 0
  %81 = zext i1 %80 to i32
  %82 = call i32 @test_true(ptr noundef nonnull @.str.14, i32 noundef 2418, ptr noundef nonnull @.str.361, i32 noundef %81) #10
  %.not44 = icmp eq i32 %82, 0
  br i1 %.not44, label %94, label %83

83:                                               ; preds = %78
  %84 = call i32 @SSL_is_domain(ptr noundef %76) #10
  %85 = icmp ne i32 %84, 0
  %86 = zext i1 %85 to i32
  %87 = call i32 @test_false(ptr noundef nonnull @.str.14, i32 noundef 2419, ptr noundef nonnull @.str.362, i32 noundef %86) #10
  %.not45 = icmp eq i32 %87, 0
  br i1 %.not45, label %94, label %88

88:                                               ; preds = %83
  %89 = call ptr @SSL_get0_domain(ptr noundef %76) #10
  %90 = call i32 @test_ptr_eq(ptr noundef nonnull @.str.14, i32 noundef 2420, ptr noundef nonnull @.str.363, ptr noundef nonnull @.str.358, ptr noundef %89, ptr noundef %36) #10
  %.not46 = icmp eq i32 %90, 0
  br i1 %.not46, label %94, label %91

91:                                               ; preds = %88
  %92 = call ptr @SSL_get0_listener(ptr noundef %76) #10
  %93 = call i32 @test_ptr_eq(ptr noundef nonnull @.str.14, i32 noundef 2421, ptr noundef nonnull @.str.364, ptr noundef nonnull @.str.365, ptr noundef %92, ptr noundef %76) #10
  %.not47 = icmp ne i32 %93, 0
  %spec.select = zext i1 %.not47 to i32
  br label %94

94:                                               ; preds = %91, %0, %6, %11, %14, %18, %22, %27, %32, %35, %38, %43, %46, %51, %56, %59, %64, %69, %72, %75, %78, %83, %88
  %.025 = phi i32 [ 0, %88 ], [ 0, %83 ], [ 0, %78 ], [ 0, %75 ], [ 0, %72 ], [ 0, %69 ], [ 0, %64 ], [ 0, %59 ], [ 0, %56 ], [ 0, %51 ], [ 0, %46 ], [ 0, %43 ], [ 0, %38 ], [ 0, %35 ], [ 0, %32 ], [ 0, %27 ], [ 0, %22 ], [ 0, %18 ], [ 0, %14 ], [ 0, %11 ], [ 0, %6 ], [ 0, %0 ], [ %spec.select, %91 ]
  %.024 = phi ptr [ %36, %88 ], [ %36, %83 ], [ %36, %78 ], [ %36, %75 ], [ %36, %72 ], [ %36, %69 ], [ %36, %64 ], [ %36, %59 ], [ %36, %56 ], [ %36, %51 ], [ %36, %46 ], [ %36, %43 ], [ %36, %38 ], [ %36, %35 ], [ null, %32 ], [ null, %27 ], [ null, %22 ], [ null, %18 ], [ null, %14 ], [ null, %11 ], [ null, %6 ], [ null, %0 ], [ %36, %91 ]
  %.023 = phi ptr [ %76, %88 ], [ %76, %83 ], [ %76, %78 ], [ %76, %75 ], [ null, %72 ], [ null, %69 ], [ null, %64 ], [ null, %59 ], [ null, %56 ], [ null, %51 ], [ null, %46 ], [ null, %43 ], [ null, %38 ], [ null, %35 ], [ null, %32 ], [ null, %27 ], [ null, %22 ], [ null, %18 ], [ null, %14 ], [ null, %11 ], [ null, %6 ], [ null, %0 ], [ %76, %91 ]
  %.0 = phi ptr [ %47, %88 ], [ %47, %83 ], [ %47, %78 ], [ %47, %75 ], [ %47, %72 ], [ %47, %69 ], [ %47, %64 ], [ %47, %59 ], [ %47, %56 ], [ %47, %51 ], [ %47, %46 ], [ null, %43 ], [ null, %38 ], [ null, %35 ], [ null, %32 ], [ null, %27 ], [ null, %22 ], [ null, %18 ], [ null, %14 ], [ null, %11 ], [ null, %6 ], [ null, %0 ], [ %47, %91 ]
  call void @SSL_free(ptr noundef %.024) #10
  call void @SSL_free(ptr noundef %.023) #10
  call void @SSL_free(ptr noundef %.0) #10
  call void @SSL_CTX_free(ptr noundef %4) #10
  call void @llvm.lifetime.end.p0(i64 8, ptr nonnull %1) #10
  ret i32 %.025
}